; Function Attrs: mustprogress uwtable
define void @_ZN7rocksdb16PointLockManager16DecrementWaitersEPKNS_22PessimisticTransactionERKNS_10autovectorImLm8EEE(ptr noundef nonnull align 8 dereferenceable(32032) %0, ptr noundef %1, ptr noundef nonnull readonly align 8 captures(none) dereferenceable(104) %2) local_unnamed_addr #4 align 2 personality ptr @__gxx_personality_v0 {
  %4 = getelementptr inbounds nuw i8, ptr %0, i64 160
  %5 = tail call noundef i32 @pthread_mutex_lock(ptr noundef nonnull align 8 dereferenceable(40) %4) #30
  %.not.i.i = icmp eq i32 %5, 0
  br i1 %.not.i.i, label %_ZNSt10lock_guardISt5mutexEC2ERS0_.exit, label %6

6:                                                ; preds = %3
  tail call void @_ZSt20__throw_system_errori(i32 noundef %5) #33
  unreachable

_ZNSt10lock_guardISt5mutexEC2ERS0_.exit:          ; preds = %3
  invoke void @_ZN7rocksdb16PointLockManager20DecrementWaitersImplEPKNS_22PessimisticTransactionERKNS_10autovectorImLm8EEE(ptr noundef nonnull align 8 dereferenceable(32032) %0, ptr noundef %1, ptr noundef nonnull align 8 dereferenceable(104) %2)
          to label %7 unwind label %9

7:                                                ; preds = %_ZNSt10lock_guardISt5mutexEC2ERS0_.exit
  %8 = tail call noundef i32 @pthread_mutex_unlock(ptr noundef nonnull align 8 dereferenceable(40) %4) #30
  ret void

9:                                                ; preds = %_ZNSt10lock_guardISt5mutexEC2ERS0_.exit
  %10 = landingpad { ptr, i32 }
          cleanup
  %11 = tail call noundef i32 @pthread_mutex_unlock(ptr noundef nonnull align 8 dereferenceable(40) %4) #30
  resume { ptr, i32 } %10
}